target datalayout = "e-m:e-p270:32:32-p271:32:32-p272:64:64-i64:64-i128:128-f80:128-n8:16:32:64-S128"
target triple = "x86_64-unknown-linux-gnu"

%struct.QEMUTimerListGroup = type { [4 x ptr] }
%struct.QEMUClock = type { %struct.anon.0, i32, i8 }
%struct.anon.0 = type { ptr }
%struct.QEMUTimerList = type { ptr, %struct.QemuMutex, ptr, %struct.anon, ptr, ptr, %struct.QemuEvent }
%struct.QemuMutex = type { %union.pthread_mutex_t, i8 }
%union.pthread_mutex_t = type { %struct.__pthread_mutex_s }
%struct.__pthread_mutex_s = type { i32, i32, i32, i32, i32, i16, i16, %struct.__pthread_internal_list }
%struct.__pthread_internal_list = type { ptr, ptr }
%struct.anon = type { ptr, ptr }
%struct.QemuEvent = type { i32, i8 }

@.str.1 = private unnamed_addr constant [26 x i8] c"../qemu/util/qemu-timer.c\00", align 1
@main_loop_tlg = dso_local global %struct.QEMUTimerListGroup zeroinitializer, align 8
@qemu_clocks = internal global [4 x %struct.QEMUClock] zeroinitializer, align 16
@.str.4 = private unnamed_addr constant [31 x i8] c"main_loop_tlg.tl[type] == NULL\00", align 1
@__PRETTY_FUNCTION__.qemu_clock_init = private unnamed_addr constant [61 x i8] c"void qemu_clock_init(QEMUClockType, QEMUTimerListNotifyCB *)\00", align 1

; Function Attrs: nounwind sspstrong uwtable
define dso_local ptr @timerlist_new(i32 noundef %type, ptr noundef %cb, ptr noundef %opaque) #0 {
entry:
  %type.addr = alloca i32, align 4
  %cb.addr = alloca ptr, align 8
  %opaque.addr = alloca ptr, align 8
  %timer_list = alloca ptr, align 8
  %clock = alloca ptr, align 8
  store i32 %type, ptr %type.addr, align 4
  store ptr %cb, ptr %cb.addr, align 8
  store ptr %opaque, ptr %opaque.addr, align 8
  %0 = load i32, ptr %type.addr, align 4
  %call = call ptr @qemu_clock_ptr(i32 noundef %0)
  store ptr %call, ptr %clock, align 8
  %call1 = call noalias ptr @g_malloc0_n(i64 noundef 1, i64 noundef 104) #6
  store ptr %call1, ptr %timer_list, align 8
  %1 = load ptr, ptr %timer_list, align 8
  %timers_done_ev = getelementptr inbounds %struct.QEMUTimerList, ptr %1, i32 0, i32 6
  call void @qemu_event_init(ptr noundef %timers_done_ev, i1 noundef zeroext true)
  %2 = load ptr, ptr %clock, align 8
  %3 = load ptr, ptr %timer_list, align 8
  %clock2 = getelementptr inbounds %struct.QEMUTimerList, ptr %3, i32 0, i32 0
  store ptr %2, ptr %clock2, align 8
  %4 = load ptr, ptr %cb.addr, align 8
  %5 = load ptr, ptr %timer_list, align 8
  %notify_cb = getelementptr inbounds %struct.QEMUTimerList, ptr %5, i32 0, i32 4
  store ptr %4, ptr %notify_cb, align 8
  %6 = load ptr, ptr %opaque.addr, align 8
  %7 = load ptr, ptr %timer_list, align 8
  %notify_opaque = getelementptr inbounds %struct.QEMUTimerList, ptr %7, i32 0, i32 5
  store ptr %6, ptr %notify_opaque, align 8
  %8 = load ptr, ptr %timer_list, align 8
  %active_timers_lock = getelementptr inbounds %struct.QEMUTimerList, ptr %8, i32 0, i32 1
  call void @qemu_mutex_init(ptr noundef %active_timers_lock)
  br label %do.body

do.body:                                          ; preds = %entry
  %9 = load ptr, ptr %clock, align 8
  %timerlists = getelementptr inbounds %struct.QEMUClock, ptr %9, i32 0, i32 0
  %lh_first = getelementptr inbounds %struct.anon.0, ptr %timerlists, i32 0, i32 0
  %10 = load ptr, ptr %lh_first, align 8
  %11 = load ptr, ptr %timer_list, align 8
  %list = getelementptr inbounds %struct.QEMUTimerList, ptr %11, i32 0, i32 3
  %le_next = getelementptr inbounds %struct.anon, ptr %list, i32 0, i32 0
  store ptr %10, ptr %le_next, align 8
  %cmp = icmp ne ptr %10, null
  br i1 %cmp, label %if.then, label %if.end

if.then:                                          ; preds = %do.body
  %12 = load ptr, ptr %timer_list, align 8
  %list3 = getelementptr inbounds %struct.QEMUTimerList, ptr %12, i32 0, i32 3
  %le_next4 = getelementptr inbounds %struct.anon, ptr %list3, i32 0, i32 0
  %13 = load ptr, ptr %clock, align 8
  %timerlists5 = getelementptr inbounds %struct.QEMUClock, ptr %13, i32 0, i32 0
  %lh_first6 = getelementptr inbounds %struct.anon.0, ptr %timerlists5, i32 0, i32 0
  %14 = load ptr, ptr %lh_first6, align 8
  %list7 = getelementptr inbounds %struct.QEMUTimerList, ptr %14, i32 0, i32 3
  %le_prev = getelementptr inbounds %struct.anon, ptr %list7, i32 0, i32 1
  store ptr %le_next4, ptr %le_prev, align 8
  br label %if.end

if.end:                                           ; preds = %if.then, %do.body
  %15 = load ptr, ptr %timer_list, align 8
  %16 = load ptr, ptr %clock, align 8
  %timerlists8 = getelementptr inbounds %struct.QEMUClock, ptr %16, i32 0, i32 0
  %lh_first9 = getelementptr inbounds %struct.anon.0, ptr %timerlists8, i32 0, i32 0
  store ptr %15, ptr %lh_first9, align 8
  %17 = load ptr, ptr %clock, align 8
  %timerlists10 = getelementptr inbounds %struct.QEMUClock, ptr %17, i32 0, i32 0
  %lh_first11 = getelementptr inbounds %struct.anon.0, ptr %timerlists10, i32 0, i32 0
  %18 = load ptr, ptr %timer_list, align 8
  %list12 = getelementptr inbounds %struct.QEMUTimerList, ptr %18, i32 0, i32 3
  %le_prev13 = getelementptr inbounds %struct.anon, ptr %list12, i32 0, i32 1
  store ptr %lh_first11, ptr %le_prev13, align 8
  br label %do.end

do.end:                                           ; preds = %if.end
  %19 = load ptr, ptr %timer_list, align 8
  ret ptr %19
}

; Function Attrs: nounwind sspstrong uwtable
define internal ptr @qemu_clock_ptr(i32 noundef %type) #0 {
entry:
  %type.addr = alloca i32, align 4
  store i32 %type, ptr %type.addr, align 4
  %0 = load i32, ptr %type.addr, align 4
  %idxprom = zext i32 %0 to i64
  %arrayidx = getelementptr [4 x %struct.QEMUClock], ptr @qemu_clocks, i64 0, i64 %idxprom
  ret ptr %arrayidx
}

; Function Attrs: nounwind sspstrong uwtable
define internal void @qemu_clock_init(i32 noundef %type, ptr noundef %notify_cb) #0 {
entry:
  %type.addr = alloca i32, align 4
  %notify_cb.addr = alloca ptr, align 8
  %clock = alloca ptr, align 8
  store i32 %type, ptr %type.addr, align 4
  store ptr %notify_cb, ptr %notify_cb.addr, align 8
  %0 = load i32, ptr %type.addr, align 4
  %call = call ptr @qemu_clock_ptr(i32 noundef %0)
  store ptr %call, ptr %clock, align 8
  %1 = load i32, ptr %type.addr, align 4
  %idxprom = zext i32 %1 to i64
  %arrayidx = getelementptr [4 x ptr], ptr @main_loop_tlg, i64 0, i64 %idxprom
  %2 = load ptr, ptr %arrayidx, align 8
  %cmp = icmp eq ptr %2, null
  br i1 %cmp, label %if.then, label %if.else

if.then:                                          ; preds = %entry
  br label %if.end

if.else:                                          ; preds = %entry
  call void @__assert_fail(ptr noundef @.str.4, ptr noundef @.str.1, i32 noundef 128, ptr noundef @__PRETTY_FUNCTION__.qemu_clock_init) #7
  unreachable

if.end:                                           ; preds = %if.then
  %3 = load i32, ptr %type.addr, align 4
  %4 = load ptr, ptr %clock, align 8
  %type1 = getelementptr inbounds %struct.QEMUClock, ptr %4, i32 0, i32 1
  store i32 %3, ptr %type1, align 8
  %5 = load i32, ptr %type.addr, align 4
  %cmp2 = icmp eq i32 %5, 1
  %cond = select i1 %cmp2, i32 0, i32 1
  %tobool = icmp ne i32 %cond, 0
  %6 = load ptr, ptr %clock, align 8
  %enabled = getelementptr inbounds %struct.QEMUClock, ptr %6, i32 0, i32 2
  %frombool = zext i1 %tobool to i8
  store i8 %frombool, ptr %enabled, align 4
  br label %do.body

do.body:                                          ; preds = %if.end
  %7 = load ptr, ptr %clock, align 8
  %timerlists = getelementptr inbounds %struct.QEMUClock, ptr %7, i32 0, i32 0
  %lh_first = getelementptr inbounds %struct.anon.0, ptr %timerlists, i32 0, i32 0
  store ptr null, ptr %lh_first, align 8
  br label %do.end

do.end:                                           ; preds = %do.body
  %8 = load i32, ptr %type.addr, align 4
  %9 = load ptr, ptr %notify_cb.addr, align 8
  %call3 = call ptr @timerlist_new(i32 noundef %8, ptr noundef %9, ptr noundef null)
  %10 = load i32, ptr %type.addr, align 4
  %idxprom4 = zext i32 %10 to i64
  %arrayidx5 = getelementptr [4 x ptr], ptr @main_loop_tlg, i64 0, i64 %idxprom4
  store ptr %call3, ptr %arrayidx5, align 8
  ret void
}

; Function Attrs: nounwind sspstrong uwtable
define dso_local void @init_clocks(ptr noundef %notify_cb) #0 {
entry:
  %notify_cb.addr = alloca ptr, align 8
  %type = alloca i32, align 4
  store ptr %notify_cb, ptr %notify_cb.addr, align 8
  store i32 0, ptr %type, align 4
  br label %for.cond

for.cond:                                         ; preds = %for.inc, %entry
  %0 = load i32, ptr %type, align 4
  %cmp = icmp ult i32 %0, 4
  br i1 %cmp, label %for.body, label %for.end

for.body:                                         ; preds = %for.cond
  %1 = load i32, ptr %type, align 4
  %2 = load ptr, ptr %notify_cb.addr, align 8
  call void @qemu_clock_init(i32 noundef %1, ptr noundef %2)
  br label %for.inc

for.inc:                                          ; preds = %for.body
  %3 = load i32, ptr %type, align 4
  %inc = add i32 %3, 1
  store i32 %inc, ptr %type, align 4
  br label %for.cond, !llvm.loop !18

for.end:                                          ; preds = %for.cond
  %call = call i32 (i32, ...) @prctl(i32 noundef 29, i32 noundef 1, i32 noundef 0, i32 noundef 0, i32 noundef 0) #9
  ret void
}