; Function Attrs: nounwind sspstrong uwtable
define dso_local void @init_clocks(ptr noundef %notify_cb) local_unnamed_addr #0 {
entry:
  br label %for.body

for.body:                                         ; preds = %entry, %qemu_clock_init.exit
  %indvars.iv = phi i64 [ 0, %entry ], [ %indvars.iv.next, %qemu_clock_init.exit ]
  %arrayidx.i.i = getelementptr [4 x %struct.QEMUClock], ptr @qemu_clocks, i64 0, i64 %indvars.iv
  %arrayidx.i = getelementptr [4 x ptr], ptr @main_loop_tlg, i64 0, i64 %indvars.iv
  %0 = load ptr, ptr %arrayidx.i, align 8
  %cmp.i = icmp eq ptr %0, null
  br i1 %cmp.i, label %if.end.i, label %if.else.i

if.else.i:                                        ; preds = %for.body
  tail call void @__assert_fail(ptr noundef nonnull @.str.4, ptr noundef nonnull @.str.1, i32 noundef 128, ptr noundef nonnull @__PRETTY_FUNCTION__.qemu_clock_init) #18
  unreachable

if.end.i:                                         ; preds = %for.body
  %type1.i = getelementptr inbounds nuw i8, ptr %arrayidx.i.i, i64 8
  %1 = trunc nuw nsw i64 %indvars.iv to i32
  store i32 %1, ptr %type1.i, align 8
  %cmp2.i = icmp ne i64 %indvars.iv, 1
  %enabled.i = getelementptr inbounds nuw i8, ptr %arrayidx.i.i, i64 12
  %frombool.i = zext i1 %cmp2.i to i8
  store i8 %frombool.i, ptr %enabled.i, align 4
  store ptr null, ptr %arrayidx.i.i, align 16
  %call1.i.i = tail call noalias dereferenceable_or_null(104) ptr @g_malloc0_n(i64 noundef 1, i64 noundef 104) #16
  %timers_done_ev.i.i = getelementptr inbounds nuw i8, ptr %call1.i.i, i64 96
  tail call void @qemu_event_init(ptr noundef nonnull %timers_done_ev.i.i, i1 noundef zeroext true) #17
  store ptr %arrayidx.i.i, ptr %call1.i.i, align 8
  %notify_cb.i.i = getelementptr inbounds nuw i8, ptr %call1.i.i, i64 80
  store ptr %notify_cb, ptr %notify_cb.i.i, align 8
  %notify_opaque.i.i = getelementptr inbounds nuw i8, ptr %call1.i.i, i64 88
  store ptr null, ptr %notify_opaque.i.i, align 8
  %active_timers_lock.i.i = getelementptr inbounds nuw i8, ptr %call1.i.i, i64 8
  tail call void @qemu_mutex_init(ptr noundef nonnull %active_timers_lock.i.i) #17
  %2 = load ptr, ptr %arrayidx.i.i, align 16
  %list.i.i = getelementptr inbounds nuw i8, ptr %call1.i.i, i64 64
  store ptr %2, ptr %list.i.i, align 8
  %cmp.not.i.i = icmp eq ptr %2, null
  br i1 %cmp.not.i.i, label %qemu_clock_init.exit, label %if.then.i.i

if.then.i.i:                                      ; preds = %if.end.i
  %le_prev.i.i = getelementptr inbounds nuw i8, ptr %2, i64 72
  store ptr %list.i.i, ptr %le_prev.i.i, align 8
  br label %qemu_clock_init.exit

qemu_clock_init.exit:                             ; preds = %if.end.i, %if.then.i.i
  store ptr %call1.i.i, ptr %arrayidx.i.i, align 16
  %le_prev13.i.i = getelementptr inbounds nuw i8, ptr %call1.i.i, i64 72
  store ptr %arrayidx.i.i, ptr %le_prev13.i.i, align 8
  store ptr %call1.i.i, ptr %arrayidx.i, align 8
  %indvars.iv.next = add nuw nsw i64 %indvars.iv, 1
  %exitcond.not = icmp eq i64 %indvars.iv.next, 4
  br i1 %exitcond.not, label %for.end, label %for.body, !llvm.loop !15

for.end:                                          ; preds = %qemu_clock_init.exit
  %call = tail call i32 (i32, ...) @prctl(i32 noundef 29, i32 noundef 1, i32 noundef 0, i32 noundef 0, i32 noundef 0) #17
  ret void
}